target datalayout = "e-m:e-p270:32:32-p271:32:32-p272:64:64-i64:64-i128:128-f80:128-n8:16:32:64-S128"
target triple = "x86_64-pc-linux-gnu"

%struct._object = type { %union.anon, ptr }
%union.anon = type { i64 }
%struct.anon = type { i32, i32 }

@PyExc_LookupError = external global ptr, align 8
@PyExc_SyntaxError = external global ptr, align 8
@PyExc_ValueError = external global ptr, align 8
@PyExc_UnicodeDecodeError = external global ptr, align 8
@.str = private unnamed_addr constant [7 x i8] c"(OiiO)\00", align 1
@_Py_NoneStruct = external global %struct._object, align 8

; Function Attrs: alwaysinline nounwind uwtable
define internal i32 @_Py_IsImmortal(ptr noundef %0) #3 {
  %2 = alloca ptr, align 8
  store ptr %0, ptr %2, align 8, !tbaa !4
  %3 = load ptr, ptr %2, align 8, !tbaa !4
  %4 = getelementptr inbounds nuw %struct._object, ptr %3, i32 0, i32 0
  %5 = getelementptr inbounds nuw %struct.anon, ptr %4, i32 0, i32 0
  %6 = load i32, ptr %5, align 8, !tbaa !9
  %7 = icmp slt i32 %6, 0
  %8 = zext i1 %7 to i32
  ret i32 %8
}

; Function Attrs: inlinehint nounwind uwtable
define internal void @Py_XDECREF(ptr noundef %0) #4 {
  %2 = alloca ptr, align 8
  store ptr %0, ptr %2, align 8, !tbaa !4
  %3 = load ptr, ptr %2, align 8, !tbaa !4
  %4 = icmp ne ptr %3, null
  br i1 %4, label %5, label %7

5:                                                ; preds = %1
  %6 = load ptr, ptr %2, align 8, !tbaa !4
  call void @Py_DECREF(ptr noundef %6)
  br label %7

7:                                                ; preds = %5, %1
  ret void
}

; Function Attrs: alwaysinline nounwind uwtable
define internal void @Py_DECREF(ptr noundef %0) #3 {
  %2 = alloca ptr, align 8
  store ptr %0, ptr %2, align 8, !tbaa !4
  %3 = load ptr, ptr %2, align 8, !tbaa !4
  %4 = call i32 @_Py_IsImmortal(ptr noundef %3)
  %5 = icmp ne i32 %4, 0
  br i1 %5, label %6, label %7

6:                                                ; preds = %1
  br label %16

7:                                                ; preds = %1
  %8 = load ptr, ptr %2, align 8, !tbaa !4
  %9 = getelementptr inbounds nuw %struct._object, ptr %8, i32 0, i32 0
  %10 = getelementptr inbounds nuw %struct.anon, ptr %9, i32 0, i32 0
  %11 = load i32, ptr %10, align 8, !tbaa !9
  %12 = add i32 %11, -1
  store i32 %12, ptr %10, align 8, !tbaa !9
  %13 = icmp eq i32 %12, 0
  br i1 %13, label %14, label %16

14:                                               ; preds = %7
  %15 = load ptr, ptr %2, align 8, !tbaa !4
  call void @_Py_Dealloc(ptr noundef %15)
  br label %16

16:                                               ; preds = %6, %14, %7
  ret void
}

; Function Attrs: nounwind uwtable
define hidden void @_PyPegen_raise_tokenizer_init_error(ptr noundef %0) #0 {
  %2 = alloca ptr, align 8
  %3 = alloca ptr, align 8
  %4 = alloca ptr, align 8
  %5 = alloca ptr, align 8
  %6 = alloca ptr, align 8
  %7 = alloca ptr, align 8
  %8 = alloca ptr, align 8
  store ptr %0, ptr %2, align 8, !tbaa !4
  %9 = load ptr, ptr @PyExc_LookupError, align 8, !tbaa !4
  %10 = call i32 @PyErr_ExceptionMatches(ptr noundef %9)
  %11 = icmp ne i32 %10, 0
  br i1 %11, label %25, label %12

12:                                               ; preds = %1
  %13 = load ptr, ptr @PyExc_SyntaxError, align 8, !tbaa !4
  %14 = call i32 @PyErr_ExceptionMatches(ptr noundef %13)
  %15 = icmp ne i32 %14, 0
  br i1 %15, label %25, label %16

16:                                               ; preds = %12
  %17 = load ptr, ptr @PyExc_ValueError, align 8, !tbaa !4
  %18 = call i32 @PyErr_ExceptionMatches(ptr noundef %17)
  %19 = icmp ne i32 %18, 0
  br i1 %19, label %25, label %20

20:                                               ; preds = %16
  %21 = load ptr, ptr @PyExc_UnicodeDecodeError, align 8, !tbaa !4
  %22 = call i32 @PyErr_ExceptionMatches(ptr noundef %21)
  %23 = icmp ne i32 %22, 0
  br i1 %23, label %25, label %24

24:                                               ; preds = %20
  br label %54

25:                                               ; preds = %20, %16, %12, %1
  call void @llvm.lifetime.start.p0(i64 8, ptr %3) #7
  store ptr null, ptr %3, align 8, !tbaa !4
  call void @llvm.lifetime.start.p0(i64 8, ptr %4) #7
  store ptr null, ptr %4, align 8, !tbaa !4
  call void @llvm.lifetime.start.p0(i64 8, ptr %5) #7
  call void @llvm.lifetime.start.p0(i64 8, ptr %6) #7
  call void @llvm.lifetime.start.p0(i64 8, ptr %7) #7
  call void @PyErr_Fetch(ptr noundef %5, ptr noundef %6, ptr noundef %7)
  %26 = load ptr, ptr %6, align 8, !tbaa !4
  %27 = call ptr @PyObject_Str(ptr noundef %26)
  store ptr %27, ptr %3, align 8, !tbaa !4
  %28 = load ptr, ptr %3, align 8, !tbaa !4
  %29 = icmp ne ptr %28, null
  br i1 %29, label %31, label %30

30:                                               ; preds = %25
  br label %48

31:                                               ; preds = %25
  %32 = load ptr, ptr %2, align 8, !tbaa !4
  %33 = call ptr (ptr, ...) @Py_BuildValue(ptr noundef @.str, ptr noundef %32, i32 noundef 0, i32 noundef -1, ptr noundef @_Py_NoneStruct)
  store ptr %33, ptr %8, align 8, !tbaa !4
  %34 = load ptr, ptr %8, align 8, !tbaa !4
  %35 = icmp ne ptr %34, null
  br i1 %35, label %37, label %36

36:                                               ; preds = %31
  br label %48

37:                                               ; preds = %31
  %38 = load ptr, ptr %3, align 8, !tbaa !4
  %39 = load ptr, ptr %8, align 8, !tbaa !4
  %40 = call ptr (i64, ...) @PyTuple_Pack(i64 noundef 2, ptr noundef %38, ptr noundef %39)
  store ptr %40, ptr %4, align 8, !tbaa !4
  %41 = load ptr, ptr %8, align 8, !tbaa !4
  call void @Py_DECREF(ptr noundef %41)
  %42 = load ptr, ptr %6, align 8, !tbaa !4
  %43 = icmp ne ptr %42, null
  br i1 %43, label %45, label %44

44:                                               ; preds = %37
  br label %48

45:                                               ; preds = %37
  %46 = load ptr, ptr @PyExc_SyntaxError, align 8, !tbaa !4
  %47 = load ptr, ptr %4, align 8, !tbaa !4
  call void @PyErr_SetObject(ptr noundef %46, ptr noundef %47)
  br label %48

48:                                               ; preds = %45, %44, %36, %30
  %49 = load ptr, ptr %5, align 8, !tbaa !4
  call void @Py_XDECREF(ptr noundef %49)
  %50 = load ptr, ptr %6, align 8, !tbaa !4
  call void @Py_XDECREF(ptr noundef %50)
  %51 = load ptr, ptr %7, align 8, !tbaa !4
  call void @Py_XDECREF(ptr noundef %51)
  %52 = load ptr, ptr %3, align 8, !tbaa !4
  call void @Py_XDECREF(ptr noundef %52)
  %53 = load ptr, ptr %4, align 8, !tbaa !4
  call void @Py_XDECREF(ptr noundef %53)
  call void @llvm.lifetime.end.p0(i64 8, ptr %7) #7
  call void @llvm.lifetime.end.p0(i64 8, ptr %6) #7
  call void @llvm.lifetime.end.p0(i64 8, ptr %5) #7
  call void @llvm.lifetime.end.p0(i64 8, ptr %4) #7
  call void @llvm.lifetime.end.p0(i64 8, ptr %3) #7
  br label %54

54:                                               ; preds = %48, %24
  ret void
}