; Function Attrs: nounwind uwtable
define hidden void @_PyPegen_raise_tokenizer_init_error(ptr noundef %0) local_unnamed_addr #0 {
  %2 = alloca ptr, align 8
  %3 = alloca ptr, align 8
  %4 = alloca ptr, align 8
  %5 = load ptr, ptr @PyExc_LookupError, align 8, !tbaa !4
  %6 = tail call i32 @PyErr_ExceptionMatches(ptr noundef %5) #7
  %.not = icmp eq i32 %6, 0
  br i1 %.not, label %7, label %16

7:                                                ; preds = %1
  %8 = load ptr, ptr @PyExc_SyntaxError, align 8, !tbaa !4
  %9 = tail call i32 @PyErr_ExceptionMatches(ptr noundef %8) #7
  %.not11 = icmp eq i32 %9, 0
  br i1 %.not11, label %10, label %16

10:                                               ; preds = %7
  %11 = load ptr, ptr @PyExc_ValueError, align 8, !tbaa !4
  %12 = tail call i32 @PyErr_ExceptionMatches(ptr noundef %11) #7
  %.not12 = icmp eq i32 %12, 0
  br i1 %.not12, label %13, label %16

13:                                               ; preds = %10
  %14 = load ptr, ptr @PyExc_UnicodeDecodeError, align 8, !tbaa !4
  %15 = tail call i32 @PyErr_ExceptionMatches(ptr noundef %14) #7
  %.not13 = icmp eq i32 %15, 0
  br i1 %.not13, label %65, label %16

16:                                               ; preds = %13, %10, %7, %1
  call void @llvm.lifetime.start.p0(i64 8, ptr nonnull %2) #7
  call void @llvm.lifetime.start.p0(i64 8, ptr nonnull %3) #7
  call void @llvm.lifetime.start.p0(i64 8, ptr nonnull %4) #7
  call void @PyErr_Fetch(ptr noundef nonnull %2, ptr noundef nonnull %3, ptr noundef nonnull %4) #7
  %17 = load ptr, ptr %3, align 8, !tbaa !4
  %18 = call ptr @PyObject_Str(ptr noundef %17) #7
  %.not14 = icmp eq ptr %18, null
  br i1 %.not14, label %31, label %19

19:                                               ; preds = %16
  %20 = call ptr (ptr, ...) @Py_BuildValue(ptr noundef nonnull @.str, ptr noundef %0, i32 noundef 0, i32 noundef -1, ptr noundef nonnull @_Py_NoneStruct) #7
  %.not15 = icmp eq ptr %20, null
  br i1 %.not15, label %31, label %21

21:                                               ; preds = %19
  %22 = call ptr (i64, ...) @PyTuple_Pack(i64 noundef 2, ptr noundef nonnull %18, ptr noundef nonnull %20) #7
  %23 = load i32, ptr %20, align 8, !tbaa !9
  %.not.i = icmp sgt i32 %23, -1
  br i1 %.not.i, label %24, label %Py_DECREF.exit

24:                                               ; preds = %21
  %25 = add nsw i32 %23, -1
  store i32 %25, ptr %20, align 8, !tbaa !9
  %26 = icmp eq i32 %25, 0
  br i1 %26, label %27, label %Py_DECREF.exit

27:                                               ; preds = %24
  call void @_Py_Dealloc(ptr noundef nonnull %20) #7
  br label %Py_DECREF.exit

Py_DECREF.exit:                                   ; preds = %21, %24, %27
  %28 = load ptr, ptr %3, align 8, !tbaa !4
  %.not16 = icmp eq ptr %28, null
  br i1 %.not16, label %31, label %29

29:                                               ; preds = %Py_DECREF.exit
  %30 = load ptr, ptr @PyExc_SyntaxError, align 8, !tbaa !4
  call void @PyErr_SetObject(ptr noundef %30, ptr noundef %22) #7
  br label %31

31:                                               ; preds = %Py_DECREF.exit, %19, %16, %29
  %.0 = phi ptr [ %22, %29 ], [ %22, %Py_DECREF.exit ], [ null, %19 ], [ null, %16 ]
  %32 = load ptr, ptr %2, align 8, !tbaa !4
  %.not.i17 = icmp eq ptr %32, null
  br i1 %.not.i17, label %Py_XDECREF.exit, label %33

33:                                               ; preds = %31
  %34 = load i32, ptr %32, align 8, !tbaa !9
  %.not.i.i = icmp sgt i32 %34, -1
  br i1 %.not.i.i, label %35, label %Py_XDECREF.exit

35:                                               ; preds = %33
  %36 = add nsw i32 %34, -1
  store i32 %36, ptr %32, align 8, !tbaa !9
  %37 = icmp eq i32 %36, 0
  br i1 %37, label %38, label %Py_XDECREF.exit

38:                                               ; preds = %35
  call void @_Py_Dealloc(ptr noundef nonnull %32) #7
  br label %Py_XDECREF.exit

Py_XDECREF.exit:                                  ; preds = %31, %33, %35, %38
  %39 = load ptr, ptr %3, align 8, !tbaa !4
  %.not.i18 = icmp eq ptr %39, null
  br i1 %.not.i18, label %Py_XDECREF.exit20, label %40

40:                                               ; preds = %Py_XDECREF.exit
  %41 = load i32, ptr %39, align 8, !tbaa !9
  %.not.i.i19 = icmp sgt i32 %41, -1
  br i1 %.not.i.i19, label %42, label %Py_XDECREF.exit20

42:                                               ; preds = %40
  %43 = add nsw i32 %41, -1
  store i32 %43, ptr %39, align 8, !tbaa !9
  %44 = icmp eq i32 %43, 0
  br i1 %44, label %45, label %Py_XDECREF.exit20

45:                                               ; preds = %42
  call void @_Py_Dealloc(ptr noundef nonnull %39) #7
  br label %Py_XDECREF.exit20

Py_XDECREF.exit20:                                ; preds = %Py_XDECREF.exit, %40, %42, %45
  %46 = load ptr, ptr %4, align 8, !tbaa !4
  %.not.i21 = icmp eq ptr %46, null
  br i1 %.not.i21, label %Py_XDECREF.exit23, label %47

47:                                               ; preds = %Py_XDECREF.exit20
  %48 = load i32, ptr %46, align 8, !tbaa !9
  %.not.i.i22 = icmp sgt i32 %48, -1
  br i1 %.not.i.i22, label %49, label %Py_XDECREF.exit23

49:                                               ; preds = %47
  %50 = add nsw i32 %48, -1
  store i32 %50, ptr %46, align 8, !tbaa !9
  %51 = icmp eq i32 %50, 0
  br i1 %51, label %52, label %Py_XDECREF.exit23

52:                                               ; preds = %49
  call void @_Py_Dealloc(ptr noundef nonnull %46) #7
  br label %Py_XDECREF.exit23

Py_XDECREF.exit23:                                ; preds = %Py_XDECREF.exit20, %47, %49, %52
  br i1 %.not14, label %Py_XDECREF.exit26, label %53

53:                                               ; preds = %Py_XDECREF.exit23
  %54 = load i32, ptr %18, align 8, !tbaa !9
  %.not.i.i25 = icmp sgt i32 %54, -1
  br i1 %.not.i.i25, label %55, label %Py_XDECREF.exit26

55:                                               ; preds = %53
  %56 = add nsw i32 %54, -1
  store i32 %56, ptr %18, align 8, !tbaa !9
  %57 = icmp eq i32 %56, 0
  br i1 %57, label %58, label %Py_XDECREF.exit26

58:                                               ; preds = %55
  call void @_Py_Dealloc(ptr noundef nonnull %18) #7
  br label %Py_XDECREF.exit26

Py_XDECREF.exit26:                                ; preds = %Py_XDECREF.exit23, %53, %55, %58
  %.not.i27 = icmp eq ptr %.0, null
  br i1 %.not.i27, label %Py_XDECREF.exit29, label %59

59:                                               ; preds = %Py_XDECREF.exit26
  %60 = load i32, ptr %.0, align 8, !tbaa !9
  %.not.i.i28 = icmp sgt i32 %60, -1
  br i1 %.not.i.i28, label %61, label %Py_XDECREF.exit29

61:                                               ; preds = %59
  %62 = add nsw i32 %60, -1
  store i32 %62, ptr %.0, align 8, !tbaa !9
  %63 = icmp eq i32 %62, 0
  br i1 %63, label %64, label %Py_XDECREF.exit29

64:                                               ; preds = %61
  call void @_Py_Dealloc(ptr noundef nonnull %.0) #7
  br label %Py_XDECREF.exit29

Py_XDECREF.exit29:                                ; preds = %Py_XDECREF.exit26, %59, %61, %64
  call void @llvm.lifetime.end.p0(i64 8, ptr nonnull %4) #7
  call void @llvm.lifetime.end.p0(i64 8, ptr nonnull %3) #7
  call void @llvm.lifetime.end.p0(i64 8, ptr nonnull %2) #7
  br label %65

65:                                               ; preds = %13, %Py_XDECREF.exit29
  ret void
}